target datalayout = "e-m:e-p270:32:32-p271:32:32-p272:64:64-i64:64-i128:128-f80:128-n8:16:32:64-S128"
target triple = "x86_64-pc-linux-gnu"

@_ZTISt9exception = external constant ptr
@_ZN12_GLOBAL__N_112errorMessageE = internal global [1024 x i8] zeroinitializer, align 16

; Function Attrs: noinline noreturn nounwind uwtable
define linkonce_odr hidden void @__clang_call_terminate(ptr noundef %0) #11 comdat {
  %2 = call ptr @__cxa_begin_catch(ptr %0) #3
  call void @_ZSt9terminatev() #18
  unreachable
}

; Function Attrs: mustprogress nounwind uwtable
define internal void @_ZN12_GLOBAL__N_115setErrorMessageERKSt9exception(ptr noundef nonnull align 8 dereferenceable(8) %0) #4 {
  %2 = alloca ptr, align 8
  store ptr %0, ptr %2, align 8, !tbaa !23
  %3 = load ptr, ptr %2, align 8, !tbaa !23
  %4 = load ptr, ptr %3, align 8, !tbaa !30
  %5 = getelementptr inbounds ptr, ptr %4, i64 2
  %6 = load ptr, ptr %5, align 8
  %7 = call noundef ptr %6(ptr noundef nonnull align 8 dereferenceable(8) %3) #3
  %8 = call ptr @strncpy(ptr noundef @_ZN12_GLOBAL__N_112errorMessageE, ptr noundef %7, i64 noundef 1023) #3
  store i8 0, ptr getelementptr inbounds ([1024 x i8], ptr @_ZN12_GLOBAL__N_112errorMessageE, i64 0, i64 1023), align 1, !tbaa !32
  ret void
}

; Function Attrs: inlinehint mustprogress nounwind uwtable
define internal noundef ptr @_ZN12_GLOBAL__N_16headerEPK9ImfHeader(ptr noundef %0) #6 {
  %2 = alloca ptr, align 8
  store ptr %0, ptr %2, align 8, !tbaa !33
  %3 = load ptr, ptr %2, align 8, !tbaa !33
  ret ptr %3
}

; Function Attrs: mustprogress uwtable
define ptr @ImfOpenOutputFile(ptr noundef %0, ptr noundef %1, i32 noundef %2) #7 personality ptr @__gxx_personality_v0 {
  %4 = alloca ptr, align 8
  %5 = alloca ptr, align 8
  %6 = alloca ptr, align 8
  %7 = alloca i32, align 4
  %8 = alloca ptr, align 8
  %9 = alloca i32, align 4
  %10 = alloca ptr, align 8
  store ptr %0, ptr %5, align 8, !tbaa !53
  store ptr %1, ptr %6, align 8, !tbaa !33
  store i32 %2, ptr %7, align 4, !tbaa !16
  %11 = invoke noalias noundef nonnull ptr @_Znwm(i64 noundef 24) #19
          to label %12 unwind label %21

12:                                               ; preds = %3
  %13 = load ptr, ptr %5, align 8, !tbaa !53
  %14 = load ptr, ptr %6, align 8, !tbaa !33
  %15 = invoke noundef ptr @_ZN12_GLOBAL__N_16headerEPK9ImfHeader(ptr noundef %14)
          to label %16 unwind label %25

16:                                               ; preds = %12
  %17 = load i32, ptr %7, align 4, !tbaa !16
  %18 = invoke noundef i32 @_ZN7Imf_3_417globalThreadCountEv()
          to label %19 unwind label %25

19:                                               ; preds = %16
  invoke void @_ZN7Imf_3_414RgbaOutputFileC1EPKcRKNS_6HeaderENS_12RgbaChannelsEi(ptr noundef nonnull align 8 dereferenceable(24) %11, ptr noundef %13, ptr noundef nonnull align 8 dereferenceable(49) %15, i32 noundef %17, i32 noundef %18)
          to label %20 unwind label %25

20:                                               ; preds = %19
  store ptr %11, ptr %4, align 8
  br label %44

21:                                               ; preds = %3
  %22 = landingpad { ptr, i32 }
          catch ptr @_ZTISt9exception
  %23 = extractvalue { ptr, i32 } %22, 0
  store ptr %23, ptr %8, align 8
  %24 = extractvalue { ptr, i32 } %22, 1
  store i32 %24, ptr %9, align 4
  br label %29

25:                                               ; preds = %19, %16, %12
  %26 = landingpad { ptr, i32 }
          cleanup
          catch ptr @_ZTISt9exception
  %27 = extractvalue { ptr, i32 } %26, 0
  store ptr %27, ptr %8, align 8
  %28 = extractvalue { ptr, i32 } %26, 1
  store i32 %28, ptr %9, align 4
  call void @_ZdlPvm(ptr noundef %11, i64 noundef 24) #20
  br label %29

29:                                               ; preds = %25, %21
  %30 = load i32, ptr %9, align 4
  %31 = call i32 @llvm.eh.typeid.for.p0(ptr @_ZTISt9exception) #3
  %32 = icmp eq i32 %30, %31
  br i1 %32, label %33, label %46

33:                                               ; preds = %29
  call void @llvm.lifetime.start.p0(i64 8, ptr %10) #3
  %34 = load ptr, ptr %8, align 8
  %35 = call ptr @__cxa_begin_catch(ptr %34) #3
  store ptr %35, ptr %10, align 8
  %36 = load ptr, ptr %10, align 8, !tbaa !23
  invoke void @_ZN12_GLOBAL__N_115setErrorMessageERKSt9exception(ptr noundef nonnull align 8 dereferenceable(8) %36)
          to label %37 unwind label %38

37:                                               ; preds = %33
  store ptr null, ptr %4, align 8
  call void @__cxa_end_catch()
  call void @llvm.lifetime.end.p0(i64 8, ptr %10) #3
  br label %44

38:                                               ; preds = %33
  %39 = landingpad { ptr, i32 }
          cleanup
  %40 = extractvalue { ptr, i32 } %39, 0
  store ptr %40, ptr %8, align 8
  %41 = extractvalue { ptr, i32 } %39, 1
  store i32 %41, ptr %9, align 4
  invoke void @__cxa_end_catch()
          to label %42 unwind label %51

42:                                               ; preds = %38
  call void @llvm.lifetime.end.p0(i64 8, ptr %10) #3
  br label %46

43:                                               ; No predecessors!
  unreachable

44:                                               ; preds = %37, %20
  %45 = load ptr, ptr %4, align 8
  ret ptr %45

46:                                               ; preds = %42, %29
  %47 = load ptr, ptr %8, align 8
  %48 = load i32, ptr %9, align 4
  %49 = insertvalue { ptr, i32 } poison, ptr %47, 0
  %50 = insertvalue { ptr, i32 } %49, i32 %48, 1
  resume { ptr, i32 } %50

51:                                               ; preds = %38
  %52 = landingpad { ptr, i32 }
          catch ptr null
  %53 = extractvalue { ptr, i32 } %52, 0
  call void @__clang_call_terminate(ptr %53) #18
  unreachable
}