; Function Attrs: mustprogress uwtable
define noundef ptr @ImfOpenOutputFile(ptr noundef %0, ptr noundef %1, i32 noundef %2) local_unnamed_addr #8 personality ptr @__gxx_personality_v0 {
  %4 = invoke noalias noundef nonnull dereferenceable(24) ptr @_Znwm(i64 noundef 24) #23
          to label %5 unwind label %8

5:                                                ; preds = %3
  %6 = invoke noundef i32 @_ZN7Imf_3_417globalThreadCountEv()
          to label %7 unwind label %10

7:                                                ; preds = %5
  invoke void @_ZN7Imf_3_414RgbaOutputFileC1EPKcRKNS_6HeaderENS_12RgbaChannelsEi(ptr noundef nonnull align 8 dereferenceable(24) %4, ptr noundef %0, ptr noundef nonnull align 8 dereferenceable(49) %1, i32 noundef %2, i32 noundef %6)
          to label %22 unwind label %10

8:                                                ; preds = %3
  %9 = landingpad { ptr, i32 }
          catch ptr @_ZTISt9exception
  br label %12

10:                                               ; preds = %7, %5
  %11 = landingpad { ptr, i32 }
          cleanup
          catch ptr @_ZTISt9exception
  tail call void @_ZdlPvm(ptr noundef nonnull %4, i64 noundef 24) #25
  br label %12

12:                                               ; preds = %10, %8
  %.pn = phi { ptr, i32 } [ %11, %10 ], [ %9, %8 ]
  %.08 = extractvalue { ptr, i32 } %.pn, 1
  %13 = tail call i32 @llvm.eh.typeid.for.p0(ptr nonnull @_ZTISt9exception) #24
  %14 = icmp eq i32 %.08, %13
  br i1 %14, label %15, label %23

15:                                               ; preds = %12
  %.09 = extractvalue { ptr, i32 } %.pn, 0
  %16 = tail call ptr @__cxa_begin_catch(ptr %.09) #24
  %17 = load ptr, ptr %16, align 8, !tbaa !22
  %18 = getelementptr inbounds nuw i8, ptr %17, i64 16
  %19 = load ptr, ptr %18, align 8
  %20 = tail call noundef ptr %19(ptr noundef nonnull align 8 dereferenceable(8) %16) #24
  %21 = tail call ptr @strncpy(ptr noundef nonnull dereferenceable(1) @_ZN12_GLOBAL__N_112errorMessageE, ptr noundef nonnull dereferenceable(1) %20, i64 noundef 1023) #24
  store i8 0, ptr getelementptr inbounds nuw (i8, ptr @_ZN12_GLOBAL__N_112errorMessageE, i64 1023), align 1, !tbaa !15
  tail call void @__cxa_end_catch()
  br label %22

22:                                               ; preds = %7, %15
  %.0 = phi ptr [ null, %15 ], [ %4, %7 ]
  ret ptr %.0

23:                                               ; preds = %12
  resume { ptr, i32 } %.pn
}